Certificate:
    Data:
        Version: 3 (0x2)
        Serial Number:
            63:25:00:01:00:02:14:8d:33:15:02:e4:6c:f4
    Signature Algorithm: sha1WithRSAEncryption
        Issuer: C=DE, O=TC TrustCenter GmbH, OU=TC TrustCenter Universal CA, CN=TC TrustCenter Universal CA III
        Validity
            Not Before: Sep  9 08:15:27 2009 GMT
            Not After : Dec 31 23:59:59 2029 GMT
        Subject: C=DE, O=TC TrustCenter GmbH, OU=TC TrustCenter Universal CA, CN=TC TrustCenter Universal CA III
        Subject Public Key Info:
            Public Key Algorithm: rsaEncryption
                Public-Key: (2048 bit)
                Modulus:
                    00:c2:da:9c:62:b0:b9:71:12:b0:0b:c8:1a:57:b2:
                    ae:83:14:99:b3:34:4b:9b:90:a2:c5:e7:e7:2f:02:
                    a0:4d:2d:a4:fa:85:da:9b:25:85:2d:40:28:20:6d:
                    ea:e0:bd:b1:48:83:22:29:44:9f:4e:83:ee:35:51:
                    13:73:74:d5:bc:f2:30:66:94:53:c0:40:36:2f:0c:
                    84:65:ce:0f:6e:c2:58:93:e8:2c:0b:3a:e9:c1:8e:
                    fb:f2:6b:ca:3c:e2:9c:4e:8e:e4:f9:7d:d3:27:9f:
                    1b:d5:67:78:87:2d:7f:0b:47:b3:c7:e8:c9:48:7c:
                    af:2f:cc:0a:d9:41:ef:9f:fe:9a:e1:b2:ae:f9:53:
                    b5:e5:e9:46:9f:60:e3:df:8d:d3:7f:fb:96:7e:b3:
                    b5:72:f8:4b:ad:08:79:cd:69:89:40:27:f5:2a:c1:
                    ad:43:ec:a4:53:c8:61:b6:f7:d2:79:2a:67:18:76:
                    48:6d:5b:25:01:d1:26:c5:b7:57:69:23:15:5b:61:
                    8a:ad:f0:1b:2d:d9:af:5c:f1:26:90:69:a9:d5:0c:
                    40:f5:33:80:43:8f:9c:a3:76:2a:45:b4:af:bf:7f:
                    3e:87:3f:76:c5:cd:2a:de:20:c5:16:58:cb:f9:1b:
                    f5:0f:cb:0d:11:52:64:b8:d2:76:62:77:83:f1:58:
                    9f:ff
                Exponent: 65537 (0x10001)
        X509v3 extensions:
            X509v3 Authority Key Identifier: 
                keyid:56:E7:E1:5B:25:43:80:E0:F6:8C:E1:71:BC:8E:E5:80:2F:C4:48:E2

            X509v3 Basic Constraints: critical
                CA:TRUE
            X509v3 Key Usage: critical
                Certificate Sign, CRL Sign
            X509v3 Subject Key Identifier: 
                56:E7:E1:5B:25:43:80:E0:F6:8C:E1:71:BC:8E:E5:80:2F:C4:48:E2
    Signature Algorithm: sha1WithRSAEncryption
         83:c7:af:ea:7f:4d:0a:3c:39:b1:68:be:7b:6d:89:2e:e9:b3:
         09:e7:18:57:8d:85:9a:17:f3:76:42:50:13:0f:c7:90:6f:33:
         ad:c5:49:60:2b:6c:49:58:19:d4:e2:be:b7:bf:ab:49:bc:94:
         c8:ab:be:28:6c:16:68:e0:c8:97:46:20:a0:68:67:60:88:39:
         20:51:d8:68:01:11:ce:a7:f6:11:07:f6:ec:ec:ac:1a:1f:b2:
         66:6e:56:67:60:7a:74:5e:c0:6d:97:36:ae:b5:0d:5d:66:73:
         c0:25:32:45:d8:4a:06:07:8f:c4:b7:07:b1:4d:06:0d:e1:a5:
         eb:f4:75:ca:ba:9c:d0:bd:b3:d3:32:24:4c:ee:7e:e2:76:04:
         4b:49:53:d8:f2:e9:54:33:fc:e5:71:1f:3d:14:5c:96:4b:f1:
         3a:f2:00:bb:6c:b4:fa:96:55:08:88:09:c1:cc:91:19:29:b0:
         20:2d:ff:cb:38:a4:40:e1:17:be:79:61:80:ff:07:03:86:4c:
         4e:7b:06:9f:11:86:8d:89:ee:27:c4:db:e2:bc:19:8e:0b:c3:
         c3:13:c7:2d:03:63:3b:d3:e8:e4:a2:2a:c2:82:08:94:16:54:
         f0:ef:1f:27:90:25:b8:0d:0e:28:1b:47:77:47:bd:1c:a8:25:
         f1:94:b4:66
No Trusted Uses.
No Rejected Uses.
Alias: TC TrustCenter Universal CA III
-----BEGIN TRUSTED CERTIFICATE-----
MIID4TCCAsmgAwIBAgIOYyUAAQACFI0zFQLkbPQwDQYJKoZIhvcNAQEFBQAwezEL
MAkGA1UEBhMCREUxHDAaBgNVBAoTE1RDIFRydXN0Q2VudGVyIEdtYkgxJDAiBgNV
BAsTG1RDIFRydXN0Q2VudGVyIFVuaXZlcnNhbCBDQTEoMCYGA1UEAxMfVEMgVHJ1
c3RDZW50ZXIgVW5pdmVyc2FsIENBIElJSTAeFw0wOTA5MDkwODE1MjdaFw0yOTEy
MzEyMzU5NTlaMHsxCzAJBgNVBAYTAkRFMRwwGgYDVQQKExNUQyBUcnVzdENlbnRl
ciBHbWJIMSQwIgYDVQQLExtUQyBUcnVzdENlbnRlciBVbml2ZXJzYWwgQ0ExKDAm
BgNVBAMTH1RDIFRydXN0Q2VudGVyIFVuaXZlcnNhbCBDQSBJSUkwggEiMA0GCSqG
SIb3DQEBAQUAA4IBDwAwggEKAoIBAQDC2pxisLlxErALyBpXsq6DFJmzNEubkKLF
5+cvAqBNLaT6hdqbJYUtQCggbergvbFIgyIpRJ9Og+41URNzdNW88jBmlFPAQDYv
DIRlzg9uwliT6CwLOunBjvvya8o84pxOjuT5fdMnnxvVZ3iHLX8LR7PH6MlIfK8v
zArZQe+f/prhsq75U7Xl6UafYOPfjdN/+5Z+s7Vy+EutCHnNaYlAJ/Uqwa1D7KRT
yGG299J5KmcYdkhtWyUB0SbFt1dpIxVbYYqt8Bst2a9c8SaQaanVDED1M4BDj5yj
dipFtK+/fz6HP3bFzSreIMUWWMv5G/UPyw0RUmS40nZid4PxWJ//AgMBAAGjYzBh
MB8GA1UdIwQYMBaAFFbn4VslQ4Dg9ozhcbyO5YAvxEjiMA8GA1UdEwEB/wQFMAMB
Af8wDgYDVR0PAQH/BAQDAgEGMB0GA1UdDgQWBBRW5+FbJUOA4PaM4XG8juWAL8RI
4jANBgkqhkiG9w0BAQUFAAOCAQEAg8ev6n9NCjw5sWi+e22JLumzCecYV42Fmhfz
dkJQEw/HkG8zrcVJYCtsSVgZ1OK+t7+rSbyUyKu+KGwWaODIl0YgoGhnYIg5IFHY
aAERzqf2EQf27OysGh+yZm5WZ2B6dF7AbZc2rrUNXWZzwCUyRdhKBgePxLcHsU0G
DeGl6/R1yrqc0L2z0zIkTO5+4nYES0lT2PLpVDP85XEfPRRclkvxOvIAu2y0+pZV
CIgJwcyRGSmwIC3/yzikQOEXvnlhgP8HA4ZMTnsGnxGGjYnuJ8Tb4rwZjgvDwxPH
LQNjO9Po5KIqwoIIlBZU8O8fJ5AluA0OKBtHd0e9HKgl8ZS0ZjAhDB9UQyBUcnVz
dENlbnRlciBVbml2ZXJzYWwgQ0EgSUlJ
-----END TRUSTED CERTIFICATE-----
Certificate:
    Data:
        Version: 3 (0x2)
        Serial Number:
            44:be:0c:8b:50:00:24:b4:11:d3:36:30:4b:c0:33:77
    Signature Algorithm: sha1WithRSAEncryption
        Issuer: C=US, ST=UT, L=Salt Lake City, O=The USERTRUST Network, OU=http://www.usertrust.com, CN=UTN-USERFirst-Network Applications
        Validity
            Not Before: Jul  9 18:48:39 1999 GMT
            Not After : Jul  9 18:57:49 2019 GMT
        Subject: C=US, ST=UT, L=Salt Lake City, O=The USERTRUST Network, OU=http://www.usertrust.com, CN=UTN-USERFirst-Network Applications
        Subject Public Key Info:
            Public Key Algorithm: rsaEncryption
                Public-Key: (2048 bit)
                Modulus:
                    00:b3:fb:91:a1:e4:36:55:85:ac:06:34:5b:a0:9a:
                    58:b2:f8:b5:0f:05:77:83:ae:32:b1:76:92:68:ec:
                    23:4a:c9:76:3f:e3:9c:b6:37:79:03:b9:ab:69:8d:
                    07:25:b6:19:67:e4:b0:1b:18:73:61:4a:e8:7e:cd:
                    d3:2f:64:e3:a6:7c:0c:fa:17:80:a3:0d:47:89:4f:
                    51:71:2f:ee:fc:3f:f9:b8:16:80:87:89:93:25:20:
                    9a:43:82:69:24:76:28:59:35:a1:1d:c0:7f:83:06:
                    64:16:20:2c:d3:49:a4:85:b4:c0:61:7f:51:08:f8:
                    68:15:91:80:cb:a5:d5:ee:3b:3a:f4:84:04:5e:60:
                    59:a7:8c:34:72:ee:b8:78:c5:d1:3b:12:4a:6f:7e:
                    65:27:b9:a4:55:c5:b9:6f:43:a4:c5:1d:2c:99:c0:
                    52:a4:78:4c:15:b3:40:98:08:6b:43:c6:01:b0:7a:
                    7b:f5:6b:1c:22:3f:cb:ef:ff:a8:d0:3a:4b:76:15:
                    9e:d2:d1:c6:2e:e3:db:57:1b:32:a2:b8:6f:e8:86:
                    a6:3f:70:ab:e5:70:92:ab:44:1e:40:50:fb:9c:a3:
                    62:e4:6c:6e:a0:c8:de:e2:80:42:fa:e9:2f:e8:ce:
                    32:04:8f:7c:8d:b7:1c:a3:35:3c:15:dd:9e:c3:ae:
                    97:a5
                Exponent: 65537 (0x10001)
        X509v3 extensions:
            X509v3 Key Usage: 
                Digital Signature, Non Repudiation, Certificate Sign, CRL Sign
            X509v3 Basic Constraints: critical
                CA:TRUE
            X509v3 Subject Key Identifier: 
                FA:86:C9:DB:E0:BA:E9:78:F5:4B:A8:D6:15:DF:F0:D3:E1:6A:14:3C
            X509v3 CRL Distribution Points: 

                Full Name:
                  URI:http://crl.usertrust.com/UTN-USERFirst-NetworkApplications.crl

    Signature Algorithm: sha1WithRSAEncryption
         a4:f3:25:cc:d1:d4:91:83:22:d0:cc:32:ab:9b:96:4e:34:91:
         54:20:25:34:61:5f:2a:02:15:e1:8b:aa:ff:7d:64:51:cf:0a:
         ff:bc:7d:d8:21:6a:78:cb:2f:51:6f:f8:42:1d:33:bd:eb:b5:
         7b:94:c3:c3:a9:a0:2d:df:d1:29:1f:1d:fe:8f:3f:bb:a8:45:
         2a:7f:d1:6e:55:24:e2:bb:02:fb:31:3f:be:e8:bc:ec:40:2b:
         f8:01:d4:56:38:e4:ca:44:82:b5:61:20:21:67:65:f6:f0:0b:
         e7:34:f8:a5:c2:9c:a3:5c:40:1f:85:93:95:06:de:4f:d4:27:
         a9:b6:a5:fc:16:cd:73:31:3f:b8:65:27:cf:d4:53:1a:f0:ac:
         6e:9f:4f:05:0c:03:81:a7:84:29:c4:5a:bd:64:57:72:ad:3b:
         cf:37:18:a6:98:c6:ad:06:b4:dc:08:a3:04:d5:29:a4:96:9a:
         12:67:4a:8c:60:45:9d:f1:23:9a:b0:00:9c:68:b5:98:50:d3:
         ef:8e:2e:92:65:b1:48:3e:21:be:15:30:2a:0d:b5:0c:a3:6b:
         3f:ae:7f:57:f5:1f:96:7c:df:6f:dd:82:30:2c:65:1b:40:4a:
         cd:68:b9:72:ec:71:76:ec:54:8e:1f:85:0c:01:6a:fa:a6:38:
         ac:1f:c4:84
No Trusted Uses.
No Rejected Uses.
Alias: UTN-USER First-Network Applications
-----BEGIN TRUSTED CERTIFICATE-----
MIIEZDCCA0ygAwIBAgIQRL4Mi1AAJLQR0zYwS8AzdzANBgkqhkiG9w0BAQUFADCB
ozELMAkGA1UEBhMCVVMxCzAJBgNVBAgTAlVUMRcwFQYDVQQHEw5TYWx0IExha2Ug
Q2l0eTEeMBwGA1UEChMVVGhlIFVTRVJUUlVTVCBOZXR3b3JrMSEwHwYDVQQLExho
dHRwOi8vd3d3LnVzZXJ0cnVzdC5jb20xKzApBgNVBAMTIlVUTi1VU0VSRmlyc3Qt
TmV0d29yayBBcHBsaWNhdGlvbnMwHhcNOTkwNzA5MTg0ODM5WhcNMTkwNzA5MTg1
NzQ5WjCBozELMAkGA1UEBhMCVVMxCzAJBgNVBAgTAlVUMRcwFQYDVQQHEw5TYWx0
IExha2UgQ2l0eTEeMBwGA1UEChMVVGhlIFVTRVJUUlVTVCBOZXR3b3JrMSEwHwYD
VQQLExhodHRwOi8vd3d3LnVzZXJ0cnVzdC5jb20xKzApBgNVBAMTIlVUTi1VU0VS
Rmlyc3QtTmV0d29yayBBcHBsaWNhdGlvbnMwggEiMA0GCSqGSIb3DQEBAQUAA4IB
DwAwggEKAoIBAQCz+5Gh5DZVhawGNFugmliy+LUPBXeDrjKxdpJo7CNKyXY/45y2
N3kDuatpjQclthln5LAbGHNhSuh+zdMvZOOmfAz6F4CjDUeJT1FxL+78P/m4FoCH
iZMlIJpDgmkkdihZNaEdwH+DBmQWICzTSaSFtMBhf1EI+GgVkYDLpdXuOzr0hARe
YFmnjDRy7rh4xdE7EkpvfmUnuaRVxblvQ6TFHSyZwFKkeEwVs0CYCGtDxgGwenv1
axwiP8vv/6jQOkt2FZ7S0cYu49tXGzKiuG/ohqY/cKvlcJKrRB5AUPuco2LkbG6g
yN7igEL66S/ozjIEj3yNtxyjNTwV3Z7DrpelAgMBAAGjgZEwgY4wCwYDVR0PBAQD
AgHGMA8GA1UdEwEB/wQFMAMBAf8wHQYDVR0OBBYEFPqGydvguul49Uuo1hXf8NPh
ahQ8ME8GA1UdHwRIMEYwRKBCoECGPmh0dHA6Ly9jcmwudXNlcnRydXN0LmNvbS9V
VE4tVVNFUkZpcnN0LU5ldHdvcmtBcHBsaWNhdGlvbnMuY3JsMA0GCSqGSIb3DQEB
BQUAA4IBAQCk8yXM0dSRgyLQzDKrm5ZONJFUICU0YV8qAhXhi6r/fWRRzwr/vH3Y
IWp4yy9Rb/hCHTO967V7lMPDqaAt39EpHx3+jz+7qEUqf9FuVSTiuwL7MT++6Lzs
QCv4AdRWOOTKRIK1YSAhZ2X28AvnNPilwpyjXEAfhZOVBt5P1CeptqX8Fs1zMT+4
ZSfP1FMa8Kxun08FDAOBp4QpxFq9ZFdyrTvPNximmMatBrTcCKME1SmklpoSZ0qM
YEWd8SOasACcaLWYUNPvji6SZbFIPiG+FTAqDbUMo2s/rn9X9R+WfN9v3YIwLGUb
QErNaLly7HF27FSOH4UMAWr6pjisH8SEMCUMI1VUTi1VU0VSIEZpcnN0LU5ldHdv
cmsgQXBwbGljYXRpb25z
-----END TRUSTED CERTIFICATE-----
